target datalayout = "e-m:e-p270:32:32-p271:32:32-p272:64:64-i64:64-i128:128-f80:128-n8:16:32:64-S128"
target triple = "x86_64-pc-linux-gnu"

%struct._zend_accel_globals = type { i8, i8, i8, i8, i8, %struct._zend_accel_directives, ptr, ptr, [32 x i8], [32 x i8], i32, i8, i32, i8, i32, i64, i64, %struct._zend_array, i64, ptr, ptr, ptr, ptr, ptr }
%struct._zend_accel_directives = type { i64, i64, double, ptr, i64, i8, i8, i8, i8, i8, i8, i8, i8, i8, i8, i8, i64, i64, ptr, ptr, i64, i64, i64, i64, i64, ptr, ptr, ptr, i8, i8, i8, i8, ptr, ptr }
%struct._zend_array = type { %struct._zend_refcounted_h, %union.anon.0, i32, %union.anon.1, i32, i32, i32, i32, i64, ptr }
%struct._zend_refcounted_h = type { i32, %union.anon }
%union.anon = type { i32 }
%union.anon.0 = type { i32 }
%union.anon.1 = type { ptr }
%struct._zend_smm_shared_globals = type { ptr, i32, i64, i64, i8, %struct._zend_shared_memory_state, ptr, ptr, i64 }
%struct._zend_shared_memory_state = type { ptr, i64 }
%struct._zend_accel_shared_globals = type { i64, i64, i64, i64, i64, i64, %struct._zend_accel_hash, i64, i64, i64, i64, i8, i8, i32, i8, i8, i8, ptr, ptr, [2 x i32], ptr, ptr, %struct._zend_string_table }
%struct._zend_accel_hash = type { ptr, ptr, i32, i32, i32 }
%struct._zend_string_table = type { i32, i32, ptr, ptr, ptr, ptr }
%struct._zend_string = type { %struct._zend_refcounted_h, i64, i64, [1 x i8] }

@accel_shared_globals = hidden global ptr null, align 8
@smm_shared_globals = external global ptr, align 8
@accel_globals = hidden global %struct._zend_accel_globals zeroinitializer, align 8
@.str.23 = private unnamed_addr constant [31 x i8] c"No more entries in hash table!\00", align 1
@.str.24 = private unnamed_addr constant [15 x i8] c"Added key '%s'\00", align 1

; Function Attrs: alwaysinline nounwind uwtable
define internal i32 @zend_gc_set_refcount(ptr noundef %0, i32 noundef %1) #3 {
  %3 = alloca ptr, align 8
  %4 = alloca i32, align 4
  store ptr %0, ptr %3, align 8, !tbaa !66
  store i32 %1, ptr %4, align 4, !tbaa !4
  %5 = load i32, ptr %4, align 4, !tbaa !4
  %6 = load ptr, ptr %3, align 8, !tbaa !66
  %7 = getelementptr inbounds nuw %struct._zend_refcounted_h, ptr %6, i32 0, i32 0
  store i32 %5, ptr %7, align 4, !tbaa !68
  %8 = load ptr, ptr %3, align 8, !tbaa !66
  %9 = getelementptr inbounds nuw %struct._zend_refcounted_h, ptr %8, i32 0, i32 0
  %10 = load i32, ptr %9, align 4, !tbaa !68
  ret i32 %10
}

; Function Attrs: alwaysinline nounwind uwtable
define internal i32 @zend_gc_delref(ptr noundef %0) #3 {
  %2 = alloca ptr, align 8
  store ptr %0, ptr %2, align 8, !tbaa !66
  %3 = load ptr, ptr %2, align 8, !tbaa !66
  %4 = getelementptr inbounds nuw %struct._zend_refcounted_h, ptr %3, i32 0, i32 0
  %5 = load i32, ptr %4, align 4, !tbaa !68
  %6 = icmp ugt i32 %5, 0
  call void @llvm.assume(i1 %6)
  br label %7

7:                                                ; preds = %1
  br label %8

8:                                                ; preds = %7
  %9 = load ptr, ptr %2, align 8, !tbaa !66
  %10 = getelementptr inbounds nuw %struct._zend_refcounted_h, ptr %9, i32 0, i32 0
  %11 = load i32, ptr %10, align 4, !tbaa !68
  %12 = add i32 %11, -1
  store i32 %12, ptr %10, align 4, !tbaa !68
  ret i32 %12
}

; Function Attrs: alwaysinline nounwind uwtable
define internal i32 @zend_gc_addref(ptr noundef %0) #3 {
  %2 = alloca ptr, align 8
  store ptr %0, ptr %2, align 8, !tbaa !66
  br label %3

3:                                                ; preds = %1
  br label %4

4:                                                ; preds = %3
  %5 = load ptr, ptr %2, align 8, !tbaa !66
  %6 = getelementptr inbounds nuw %struct._zend_refcounted_h, ptr %5, i32 0, i32 0
  %7 = load i32, ptr %6, align 4, !tbaa !68
  %8 = add i32 %7, 1
  store i32 %8, ptr %6, align 4, !tbaa !68
  ret i32 %8
}

; Function Attrs: nounwind uwtable
define internal ptr @accel_new_interned_key(ptr noundef %0) #0 {
  %2 = alloca ptr, align 8
  %3 = alloca ptr, align 8
  %4 = alloca ptr, align 8
  %5 = alloca i32, align 4
  store ptr %0, ptr %3, align 8, !tbaa !52
  call void @llvm.lifetime.start.p0(i64 8, ptr %4) #19
  %6 = load ptr, ptr %3, align 8, !tbaa !52
  %7 = call zeroext i1 @zend_accel_in_shm(ptr noundef %6)
  br i1 %7, label %8, label %10

8:                                                ; preds = %1
  %9 = load ptr, ptr %3, align 8, !tbaa !52
  store ptr %9, ptr %2, align 8
  store i32 1, ptr %5, align 4
  br label %75

10:                                               ; preds = %1
  %11 = load ptr, ptr %3, align 8, !tbaa !52
  %12 = getelementptr inbounds nuw %struct._zend_string, ptr %11, i32 0, i32 0
  %13 = call i32 @zend_gc_addref(ptr noundef %12)
  %14 = load ptr, ptr %3, align 8, !tbaa !52
  %15 = call ptr @accel_new_interned_string(ptr noundef %14)
  store ptr %15, ptr %4, align 8, !tbaa !52
  %16 = load ptr, ptr %4, align 8, !tbaa !52
  %17 = load ptr, ptr %3, align 8, !tbaa !52
  %18 = icmp eq ptr %16, %17
  %19 = xor i1 %18, true
  %20 = xor i1 %19, true
  %21 = zext i1 %20 to i32
  %22 = sext i32 %21 to i64
  %23 = call i64 @llvm.expect.i64(i64 %22, i64 0)
  %24 = icmp ne i64 %23, 0
  br i1 %24, label %25, label %73

25:                                               ; preds = %10
  %26 = load ptr, ptr %3, align 8, !tbaa !52
  %27 = getelementptr inbounds nuw %struct._zend_string, ptr %26, i32 0, i32 0
  %28 = call i32 @zend_gc_delref(ptr noundef %27)
  %29 = load ptr, ptr %3, align 8, !tbaa !52
  %30 = getelementptr inbounds nuw %struct._zend_string, ptr %29, i32 0, i32 2
  %31 = load i64, ptr %30, align 8, !tbaa !63
  %32 = add i64 24, %31
  %33 = add i64 %32, 1
  %34 = add i64 %33, 7
  %35 = and i64 %34, -8
  %36 = call ptr @zend_shared_alloc(i64 noundef %35)
  store ptr %36, ptr %4, align 8, !tbaa !52
  %37 = load ptr, ptr %4, align 8, !tbaa !52
  %38 = icmp ne ptr %37, null
  %39 = xor i1 %38, true
  %40 = xor i1 %39, true
  %41 = zext i1 %40 to i32
  %42 = sext i32 %41 to i64
  %43 = call i64 @llvm.expect.i64(i64 %42, i64 1)
  %44 = icmp ne i64 %43, 0
  br i1 %44, label %45, label %72

45:                                               ; preds = %25
  %46 = load ptr, ptr %4, align 8, !tbaa !52
  %47 = getelementptr inbounds nuw %struct._zend_string, ptr %46, i32 0, i32 0
  %48 = call i32 @zend_gc_set_refcount(ptr noundef %47, i32 noundef 2)
  %49 = load ptr, ptr %4, align 8, !tbaa !52
  %50 = getelementptr inbounds nuw %struct._zend_string, ptr %49, i32 0, i32 0
  %51 = getelementptr inbounds nuw %struct._zend_refcounted_h, ptr %50, i32 0, i32 1
  store i32 86, ptr %51, align 4, !tbaa !65
  %52 = load ptr, ptr %3, align 8, !tbaa !52
  %53 = getelementptr inbounds nuw %struct._zend_string, ptr %52, i32 0, i32 1
  %54 = load i64, ptr %53, align 8, !tbaa !60
  %55 = load ptr, ptr %4, align 8, !tbaa !52
  %56 = getelementptr inbounds nuw %struct._zend_string, ptr %55, i32 0, i32 1
  store i64 %54, ptr %56, align 8, !tbaa !60
  %57 = load ptr, ptr %3, align 8, !tbaa !52
  %58 = getelementptr inbounds nuw %struct._zend_string, ptr %57, i32 0, i32 2
  %59 = load i64, ptr %58, align 8, !tbaa !63
  %60 = load ptr, ptr %4, align 8, !tbaa !52
  %61 = getelementptr inbounds nuw %struct._zend_string, ptr %60, i32 0, i32 2
  store i64 %59, ptr %61, align 8, !tbaa !63
  %62 = load ptr, ptr %4, align 8, !tbaa !52
  %63 = getelementptr inbounds nuw %struct._zend_string, ptr %62, i32 0, i32 3
  %64 = getelementptr inbounds [1 x i8], ptr %63, i64 0, i64 0
  %65 = load ptr, ptr %3, align 8, !tbaa !52
  %66 = getelementptr inbounds nuw %struct._zend_string, ptr %65, i32 0, i32 3
  %67 = getelementptr inbounds [1 x i8], ptr %66, i64 0, i64 0
  %68 = load ptr, ptr %4, align 8, !tbaa !52
  %69 = getelementptr inbounds nuw %struct._zend_string, ptr %68, i32 0, i32 2
  %70 = load i64, ptr %69, align 8, !tbaa !63
  %71 = add i64 %70, 1
  call void @llvm.memcpy.p0.p0.i64(ptr align 8 %64, ptr align 8 %67, i64 %71, i1 false)
  br label %72

72:                                               ; preds = %45, %25
  br label %73

73:                                               ; preds = %72, %10
  %74 = load ptr, ptr %4, align 8, !tbaa !52
  store ptr %74, ptr %2, align 8
  store i32 1, ptr %5, align 4
  br label %75

75:                                               ; preds = %73, %8
  call void @llvm.lifetime.end.p0(i64 8, ptr %4) #19
  %76 = load ptr, ptr %2, align 8
  ret ptr %76
}

; Function Attrs: nounwind uwtable
define hidden void @zend_accel_schedule_restart_if_necessary(i32 noundef %0) #0 {
  %2 = alloca i32, align 4
  store i32 %0, ptr %2, align 4, !tbaa !4
  %3 = load ptr, ptr @smm_shared_globals, align 8, !tbaa !8
  %4 = getelementptr inbounds nuw %struct._zend_smm_shared_globals, ptr %3, i32 0, i32 3
  %5 = load i64, ptr %4, align 8, !tbaa !11
  %6 = uitofp i64 %5 to double
  %7 = load i64, ptr getelementptr inbounds nuw (%struct._zend_accel_globals, ptr @accel_globals, i32 0, i32 5), align 8, !tbaa !18
  %8 = sitofp i64 %7 to double
  %9 = fdiv double %6, %8
  %10 = load double, ptr getelementptr inbounds nuw (%struct._zend_accel_directives, ptr getelementptr inbounds nuw (%struct._zend_accel_globals, ptr @accel_globals, i32 0, i32 5), i32 0, i32 2), align 8, !tbaa !28
  %11 = fcmp oge double %9, %10
  br i1 %11, label %12, label %14

12:                                               ; preds = %1
  %13 = load i32, ptr %2, align 4, !tbaa !4
  call void @zend_accel_schedule_restart(i32 noundef %13)
  br label %14

14:                                               ; preds = %12, %1
  ret void
}

; Function Attrs: inlinehint nounwind uwtable
define internal zeroext i1 @zend_accel_hash_is_full(ptr noundef %0) #8 {
  %2 = alloca i1, align 1
  %3 = alloca ptr, align 8
  store ptr %0, ptr %3, align 8, !tbaa !308
  %4 = load ptr, ptr %3, align 8, !tbaa !308
  %5 = getelementptr inbounds nuw %struct._zend_accel_hash, ptr %4, i32 0, i32 2
  %6 = load i32, ptr %5, align 8, !tbaa !310
  %7 = load ptr, ptr %3, align 8, !tbaa !308
  %8 = getelementptr inbounds nuw %struct._zend_accel_hash, ptr %7, i32 0, i32 3
  %9 = load i32, ptr %8, align 4, !tbaa !311
  %10 = icmp eq i32 %6, %9
  br i1 %10, label %11, label %12

11:                                               ; preds = %1
  store i1 true, ptr %2, align 1
  br label %13

12:                                               ; preds = %1
  store i1 false, ptr %2, align 1
  br label %13

13:                                               ; preds = %12, %11
  %14 = load i1, ptr %2, align 1
  ret i1 %14
}

; Function Attrs: nounwind uwtable
define internal void @zend_accel_add_key(ptr noundef %0, ptr noundef %1) #0 {
  %3 = alloca ptr, align 8
  %4 = alloca ptr, align 8
  %5 = alloca ptr, align 8
  store ptr %0, ptr %3, align 8, !tbaa !52
  store ptr %1, ptr %4, align 8, !tbaa !176
  %6 = load ptr, ptr @accel_shared_globals, align 8, !tbaa !29
  %7 = getelementptr inbounds nuw %struct._zend_accel_shared_globals, ptr %6, i32 0, i32 6
  %8 = load ptr, ptr %3, align 8, !tbaa !52
  %9 = call ptr @zend_accel_hash_find(ptr noundef %7, ptr noundef %8)
  %10 = icmp ne ptr %9, null
  br i1 %10, label %38, label %11

11:                                               ; preds = %2
  %12 = load ptr, ptr @accel_shared_globals, align 8, !tbaa !29
  %13 = getelementptr inbounds nuw %struct._zend_accel_shared_globals, ptr %12, i32 0, i32 6
  %14 = call zeroext i1 @zend_accel_hash_is_full(ptr noundef %13)
  br i1 %14, label %15, label %18

15:                                               ; preds = %11
  call void (i32, ptr, ...) @zend_accel_error(i32 noundef 4, ptr noundef @.str.23)
  %16 = load ptr, ptr @smm_shared_globals, align 8, !tbaa !8
  %17 = getelementptr inbounds nuw %struct._zend_smm_shared_globals, ptr %16, i32 0, i32 4
  store i8 1, ptr %17, align 8, !tbaa !182
  call void @zend_accel_schedule_restart_if_necessary(i32 noundef 1)
  br label %37

18:                                               ; preds = %11
  call void @llvm.lifetime.start.p0(i64 8, ptr %5) #19
  %19 = load ptr, ptr %3, align 8, !tbaa !52
  %20 = call ptr @accel_new_interned_key(ptr noundef %19)
  store ptr %20, ptr %5, align 8, !tbaa !52
  %21 = load ptr, ptr %5, align 8, !tbaa !52
  %22 = icmp ne ptr %21, null
  br i1 %22, label %23, label %35

23:                                               ; preds = %18
  %24 = load ptr, ptr @accel_shared_globals, align 8, !tbaa !29
  %25 = getelementptr inbounds nuw %struct._zend_accel_shared_globals, ptr %24, i32 0, i32 6
  %26 = load ptr, ptr %5, align 8, !tbaa !52
  %27 = load ptr, ptr %4, align 8, !tbaa !176
  %28 = call ptr @zend_accel_hash_update(ptr noundef %25, ptr noundef %26, i1 noundef zeroext true, ptr noundef %27)
  %29 = icmp ne ptr %28, null
  br i1 %29, label %30, label %34

30:                                               ; preds = %23
  %31 = load ptr, ptr %5, align 8, !tbaa !52
  %32 = getelementptr inbounds nuw %struct._zend_string, ptr %31, i32 0, i32 3
  %33 = getelementptr inbounds [1 x i8], ptr %32, i64 0, i64 0
  call void (i32, ptr, ...) @zend_accel_error(i32 noundef 3, ptr noundef @.str.24, ptr noundef %33)
  br label %34

34:                                               ; preds = %30, %23
  br label %36

35:                                               ; preds = %18
  call void @zend_accel_schedule_restart_if_necessary(i32 noundef 0)
  br label %36

36:                                               ; preds = %35, %34
  call void @llvm.lifetime.end.p0(i64 8, ptr %5) #19
  br label %37

37:                                               ; preds = %36, %15
  br label %38

38:                                               ; preds = %37, %2
  ret void
}