; Function Attrs: nounwind uwtable
define internal fastcc void @zend_accel_add_key(ptr noundef nonnull %0, ptr noundef nonnull %1) unnamed_addr #0 {
  %3 = load ptr, ptr @accel_shared_globals, align 8, !tbaa !28
  %4 = getelementptr inbounds nuw i8, ptr %3, i64 48
  %5 = tail call ptr @zend_accel_hash_find(ptr noundef nonnull %4, ptr noundef nonnull %0) #26
  %.not = icmp eq ptr %5, null
  br i1 %.not, label %6, label %zend_accel_schedule_restart_if_necessary.exit

6:                                                ; preds = %2
  %7 = load ptr, ptr @accel_shared_globals, align 8, !tbaa !28
  %8 = getelementptr i8, ptr %7, i64 64
  %.val = load i32, ptr %8, align 8, !tbaa !159
  %9 = getelementptr i8, ptr %7, i64 68
  %.val8 = load i32, ptr %9, align 4, !tbaa !160
  %10 = icmp eq i32 %.val, %.val8
  br i1 %10, label %11, label %23

11:                                               ; preds = %6
  tail call void (i32, ptr, ...) @zend_accel_error(i32 noundef 4, ptr noundef nonnull @.str.23) #26
  %12 = load ptr, ptr @smm_shared_globals, align 8, !tbaa !4
  %13 = getelementptr inbounds nuw i8, ptr %12, i64 32
  store i8 1, ptr %13, align 8, !tbaa !158
  %14 = getelementptr inbounds nuw i8, ptr %12, i64 24
  %15 = load i64, ptr %14, align 8, !tbaa !9
  %16 = uitofp i64 %15 to double
  %17 = load i64, ptr getelementptr inbounds nuw (i8, ptr @accel_globals, i64 8), align 8, !tbaa !17
  %18 = sitofp i64 %17 to double
  %19 = fdiv double %16, %18
  %20 = load double, ptr getelementptr inbounds nuw (i8, ptr @accel_globals, i64 24), align 8, !tbaa !27
  %21 = fcmp ult double %19, %20
  br i1 %21, label %zend_accel_schedule_restart_if_necessary.exit, label %22

22:                                               ; preds = %11
  tail call void @zend_accel_schedule_restart(i32 noundef 1)
  br label %zend_accel_schedule_restart_if_necessary.exit

23:                                               ; preds = %6
  %24 = tail call zeroext i1 @zend_accel_in_shm(ptr noundef nonnull %0) #26
  br i1 %24, label %accel_new_interned_key.exit.thread, label %25

25:                                               ; preds = %23
  %26 = load i32, ptr %0, align 4, !tbaa !63
  %27 = add i32 %26, 1
  store i32 %27, ptr %0, align 4, !tbaa !63
  %28 = tail call ptr @accel_new_interned_string(ptr noundef nonnull %0)
  %29 = icmp eq ptr %28, %0
  br i1 %29, label %30, label %accel_new_interned_key.exit, !prof !53

30:                                               ; preds = %25
  %31 = load i32, ptr %0, align 4, !tbaa !63
  %32 = icmp ne i32 %31, 0
  tail call void @llvm.assume(i1 %32)
  %33 = add i32 %31, -1
  store i32 %33, ptr %0, align 4, !tbaa !63
  %34 = getelementptr inbounds nuw i8, ptr %0, i64 16
  %35 = load i64, ptr %34, align 8, !tbaa !60
  %36 = and i64 %35, -8
  %37 = add i64 %36, 32
  %38 = tail call ptr @zend_shared_alloc(i64 noundef %37) #26
  %.not.i = icmp eq ptr %38, null
  br i1 %.not.i, label %accel_new_interned_key.exit.thread13, label %39, !prof !53

39:                                               ; preds = %30
  store i32 2, ptr %38, align 4, !tbaa !63
  %40 = getelementptr inbounds nuw i8, ptr %38, i64 4
  store i32 86, ptr %40, align 4, !tbaa !64
  %41 = getelementptr inbounds nuw i8, ptr %0, i64 8
  %42 = load i64, ptr %41, align 8, !tbaa !56
  %43 = getelementptr inbounds nuw i8, ptr %38, i64 8
  store i64 %42, ptr %43, align 8, !tbaa !56
  %44 = load i64, ptr %34, align 8, !tbaa !60
  %45 = getelementptr inbounds nuw i8, ptr %38, i64 16
  store i64 %44, ptr %45, align 8, !tbaa !60
  %46 = getelementptr inbounds nuw i8, ptr %38, i64 24
  %47 = getelementptr inbounds nuw i8, ptr %0, i64 24
  %48 = add i64 %44, 1
  tail call void @llvm.memcpy.p0.p0.i64(ptr nonnull align 8 %46, ptr nonnull align 8 %47, i64 %48, i1 false)
  br label %accel_new_interned_key.exit.thread

accel_new_interned_key.exit:                      ; preds = %25
  %.not6 = icmp eq ptr %28, null
  br i1 %.not6, label %accel_new_interned_key.exit.thread13, label %accel_new_interned_key.exit.thread

accel_new_interned_key.exit.thread:               ; preds = %39, %23, %accel_new_interned_key.exit
  %.020.i12 = phi ptr [ %28, %accel_new_interned_key.exit ], [ %38, %39 ], [ %0, %23 ]
  %49 = load ptr, ptr @accel_shared_globals, align 8, !tbaa !28
  %50 = getelementptr inbounds nuw i8, ptr %49, i64 48
  %51 = tail call ptr @zend_accel_hash_update(ptr noundef nonnull %50, ptr noundef nonnull %.020.i12, i1 noundef zeroext true, ptr noundef nonnull %1) #26
  %.not7 = icmp eq ptr %51, null
  br i1 %.not7, label %zend_accel_schedule_restart_if_necessary.exit, label %52

52:                                               ; preds = %accel_new_interned_key.exit.thread
  %53 = getelementptr inbounds nuw i8, ptr %.020.i12, i64 24
  tail call void (i32, ptr, ...) @zend_accel_error(i32 noundef 3, ptr noundef nonnull @.str.24, ptr noundef nonnull %53) #26
  br label %zend_accel_schedule_restart_if_necessary.exit

accel_new_interned_key.exit.thread13:             ; preds = %30, %accel_new_interned_key.exit
  %54 = load ptr, ptr @smm_shared_globals, align 8, !tbaa !4
  %55 = getelementptr inbounds nuw i8, ptr %54, i64 24
  %56 = load i64, ptr %55, align 8, !tbaa !9
  %57 = uitofp i64 %56 to double
  %58 = load i64, ptr getelementptr inbounds nuw (i8, ptr @accel_globals, i64 8), align 8, !tbaa !17
  %59 = sitofp i64 %58 to double
  %60 = fdiv double %57, %59
  %61 = load double, ptr getelementptr inbounds nuw (i8, ptr @accel_globals, i64 24), align 8, !tbaa !27
  %62 = fcmp ult double %60, %61
  br i1 %62, label %zend_accel_schedule_restart_if_necessary.exit, label %63

63:                                               ; preds = %accel_new_interned_key.exit.thread13
  tail call void @zend_accel_schedule_restart(i32 noundef 0)
  br label %zend_accel_schedule_restart_if_necessary.exit

zend_accel_schedule_restart_if_necessary.exit:    ; preds = %63, %accel_new_interned_key.exit.thread13, %22, %11, %52, %accel_new_interned_key.exit.thread, %2
  ret void
}